; Function Attrs: mustprogress uwtable
define { <2 x float>, float } @_ZNK32pxrInternal_v0_24__pxrReserved__9GfRange3f9GetCornerEm(ptr noundef nonnull readonly align 4 captures(none) dereferenceable(24) %0, i64 noundef %1) local_unnamed_addr #0 align 2 {
  %3 = alloca %"class.pxrInternal_v0_24__pxrReserved__::TfCallContext", align 8
  %4 = icmp ugt i64 %1, 7
  br i1 %4, label %5, label %10

5:                                                ; preds = %2
  store ptr @.str.3, ptr %3, align 8
  %6 = getelementptr inbounds nuw i8, ptr %3, i64 8
  store ptr @__func__._ZNK32pxrInternal_v0_24__pxrReserved__9GfRange3f9GetCornerEm, ptr %6, align 8
  %7 = getelementptr inbounds nuw i8, ptr %3, i64 16
  store i64 79, ptr %7, align 8
  %8 = getelementptr inbounds nuw i8, ptr %3, i64 24
  store ptr @__PRETTY_FUNCTION__._ZNK32pxrInternal_v0_24__pxrReserved__9GfRange3f9GetCornerEm, ptr %8, align 8
  %9 = getelementptr inbounds nuw i8, ptr %3, i64 32
  store i8 0, ptr %9, align 8
  call void (ptr, i32, ptr, ...) @_ZN32pxrInternal_v0_24__pxrReserved__18Tf_PostErrorHelperERKNS_13TfCallContextENS_16TfDiagnosticTypeEPKcz(ptr noundef nonnull align 8 dereferenceable(33) %3, i32 noundef 1, ptr noundef nonnull @.str.4, i64 noundef %1)
  %.sroa.0.0.copyload8 = load <2 x float>, ptr %0, align 4
  br label %19

10:                                               ; preds = %2
  %11 = and i64 %1, 1
  %.not = icmp eq i64 %11, 0
  %12 = getelementptr inbounds nuw i8, ptr %0, i64 12
  %.val = load float, ptr %0, align 4
  %.val9 = load float, ptr %12, align 4
  %13 = select i1 %.not, float %.val, float %.val9
  %14 = and i64 %1, 2
  %.not5 = icmp eq i64 %14, 0
  %15 = select i1 %.not5, ptr %0, ptr %12
  %16 = getelementptr inbounds nuw i8, ptr %15, i64 4
  %17 = load float, ptr %16, align 4
  %.not6 = icmp samesign ult i64 %1, 4
  %18 = select i1 %.not6, ptr %0, ptr %12
  %.sroa.0.0.vec.insert = insertelement <2 x float> poison, float %13, i64 0
  %.sroa.0.4.vec.insert = insertelement <2 x float> %.sroa.0.0.vec.insert, float %17, i64 1
  br label %19

19:                                               ; preds = %10, %5
  %.pn = phi ptr [ %0, %5 ], [ %18, %10 ]
  %.sroa.0.0 = phi <2 x float> [ %.sroa.0.0.copyload8, %5 ], [ %.sroa.0.4.vec.insert, %10 ]
  %.sroa.4.0.in = getelementptr inbounds nuw i8, ptr %.pn, i64 8
  %.sroa.4.0 = load float, ptr %.sroa.4.0.in, align 4
  %.fca.0.insert = insertvalue { <2 x float>, float } poison, <2 x float> %.sroa.0.0, 0
  %.fca.1.insert = insertvalue { <2 x float>, float } %.fca.0.insert, float %.sroa.4.0, 1
  ret { <2 x float>, float } %.fca.1.insert
}